; Function Attrs: mustprogress noreturn uwtable
define void @_ZN14htif_pthread_t11thread_mainEPv(ptr noundef nonnull %0) #0 align 2 {
  %2 = tail call noundef i32 @_ZN6htif_t3runEv(ptr noundef nonnull align 8 dereferenceable(696) %0)
  %3 = getelementptr inbounds i8, ptr %0, i64 728
  br label %4

4:                                                ; preds = %4, %1
  %5 = load ptr, ptr %3, align 8
  tail call void @_ZN9context_t9switch_toEv(ptr noundef nonnull align 8 dereferenceable(32) %5)
  br label %4, !llvm.loop !4
}